target datalayout = "e-m:e-p270:32:32-p271:32:32-p272:64:64-i64:64-i128:128-f80:128-n8:16:32:64-S128"
target triple = "x86_64-unknown-linux-gnu"

%struct.edata_s = type { i64, ptr, %union.anon.10, ptr, i64, %union.anon.11, %union.anon.14 }
%union.anon.10 = type { i64 }
%union.anon.11 = type { %union.anon.13 }
%union.anon.13 = type { %struct.edata_heap_link_t }
%struct.edata_heap_link_t = type { %struct.phn_link_s }
%struct.phn_link_s = type { ptr, ptr, ptr }
%union.anon.14 = type { %struct.slab_data_s }
%struct.slab_data_s = type { [8 x i64] }

@sz_index2size_tab = external global [235 x i64], align 16

; Function Attrs: nounwind uwtable
define internal i32 @edata_szind_get_maybe_invalid(ptr noundef %edata) #0 {
entry:
  %edata.addr = alloca ptr, align 8
  %szind = alloca i32, align 4
  store ptr %edata, ptr %edata.addr, align 8
  %0 = load ptr, ptr %edata.addr, align 8
  %e_bits = getelementptr inbounds %struct.edata_s, ptr %0, i32 0, i32 0
  %1 = load i64, ptr %e_bits, align 8
  %and = and i64 %1, 267386880
  %shr = lshr i64 %and, 20
  %conv = trunc i64 %shr to i32
  store i32 %conv, ptr %szind, align 4
  br label %do.body

do.body:                                          ; preds = %entry
  br label %do.end

do.end:                                           ; preds = %do.body
  %2 = load i32, ptr %szind, align 4
  ret i32 %2
}

; Function Attrs: nounwind uwtable
define internal i32 @edata_szind_get(ptr noundef %edata) #0 {
entry:
  %edata.addr = alloca ptr, align 8
  %szind = alloca i32, align 4
  store ptr %edata, ptr %edata.addr, align 8
  %0 = load ptr, ptr %edata.addr, align 8
  %call = call i32 @edata_szind_get_maybe_invalid(ptr noundef %0)
  store i32 %call, ptr %szind, align 4
  br label %do.body

do.body:                                          ; preds = %entry
  br label %do.end

do.end:                                           ; preds = %do.body
  %1 = load i32, ptr %szind, align 4
  ret i32 %1
}

; Function Attrs: nounwind uwtable
define internal i64 @edata_usize_get(ptr noundef %edata) #0 {
entry:
  %index.addr.i1.i = alloca i32, align 4
  %index.addr.i.i = alloca i32, align 4
  %ret.i.i = alloca i64, align 8
  %index.addr.i = alloca i32, align 4
  %edata.addr = alloca ptr, align 8
  store ptr %edata, ptr %edata.addr, align 8
  %0 = load ptr, ptr %edata.addr, align 8
  %call = call i32 @edata_szind_get(ptr noundef %0)
  store i32 %call, ptr %index.addr.i, align 4
  %1 = load i32, ptr %index.addr.i, align 4
  store i32 %1, ptr %index.addr.i.i, align 4
  %2 = load i32, ptr %index.addr.i.i, align 4
  store i32 %2, ptr %index.addr.i1.i, align 4
  %3 = load i32, ptr %index.addr.i1.i, align 4
  %idxprom.i.i = zext i32 %3 to i64
  %arrayidx.i.i = getelementptr inbounds [235 x i64], ptr @sz_index2size_tab, i64 0, i64 %idxprom.i.i
  %4 = load i64, ptr %arrayidx.i.i, align 8
  store i64 %4, ptr %ret.i.i, align 8
  %5 = load i64, ptr %ret.i.i, align 8
  ret i64 %5
}

; Function Attrs: nounwind uwtable
define hidden i64 @large_salloc(ptr noundef %tsdn, ptr noundef %edata) #0 {
entry:
  %tsdn.addr = alloca ptr, align 8
  %edata.addr = alloca ptr, align 8
  store ptr %tsdn, ptr %tsdn.addr, align 8
  store ptr %edata, ptr %edata.addr, align 8
  %0 = load ptr, ptr %edata.addr, align 8
  %call = call i64 @edata_usize_get(ptr noundef %0)
  ret i64 %call
}