; Function Attrs: mustprogress nofree norecurse nosync nounwind willreturn memory(read, inaccessiblemem: none) uwtable
define hidden i64 @large_salloc(ptr nocapture noundef readnone %tsdn, ptr nocapture noundef readonly %edata) local_unnamed_addr #3 {
entry:
  %edata.val = load i64, ptr %edata, align 8
  %0 = lshr i64 %edata.val, 20
  %conv.i.i.i = and i64 %0, 255
  %arrayidx.i.i.i = getelementptr inbounds [235 x i64], ptr @sz_index2size_tab, i64 0, i64 %conv.i.i.i
  %1 = load i64, ptr %arrayidx.i.i.i, align 8
  ret i64 %1
}